; Function Attrs: mustprogress uwtable
define void @_ZNK6casadi16SparsityInternal7permuteERKSt6vectorIxSaIxEES5_x(ptr dead_on_unwind noalias writable sret(%"class.casadi::Sparsity") align 8 %0, ptr nocapture noundef nonnull readonly align 8 dereferenceable(56) %1, ptr nocapture noundef nonnull readonly align 8 dereferenceable(24) %2, ptr nocapture noundef nonnull readonly align 8 dereferenceable(24) %3, i64 noundef %4) local_unnamed_addr #6 align 2 personality ptr @__gxx_personality_v0 {
  %6 = alloca %"class.std::vector", align 8
  %7 = alloca %"class.std::vector", align 8
  call void @llvm.memset.p0.i64(ptr noundef nonnull align 8 dereferenceable(24) %6, i8 0, i64 24, i1 false)
  call void @llvm.memset.p0.i64(ptr noundef nonnull align 8 dereferenceable(24) %7, i8 0, i64 24, i1 false)
  invoke void @_ZNK6casadi16SparsityInternal7permuteERKSt6vectorIxSaIxEES5_xRS3_S6_(ptr noundef nonnull align 8 dereferenceable(56) %1, ptr noundef nonnull align 8 dereferenceable(24) %2, ptr noundef nonnull align 8 dereferenceable(24) %3, i64 poison, ptr noundef nonnull align 8 dereferenceable(24) %6, ptr noundef nonnull align 8 dereferenceable(24) %7)
          to label %8 unwind label %19

8:                                                ; preds = %5
  %9 = getelementptr inbounds i8, ptr %1, i64 24
  %10 = load ptr, ptr %9, align 8
  %11 = load i64, ptr %10, align 8
  %12 = getelementptr inbounds i8, ptr %10, i64 8
  %13 = load i64, ptr %12, align 8
  invoke void @_ZN6casadi8SparsityC1ExxRKSt6vectorIxSaIxEES5_b(ptr noundef nonnull align 8 dereferenceable(8) %0, i64 noundef %11, i64 noundef %13, ptr noundef nonnull align 8 dereferenceable(24) %6, ptr noundef nonnull align 8 dereferenceable(24) %7, i1 noundef zeroext false)
          to label %14 unwind label %19

14:                                               ; preds = %8
  %15 = load ptr, ptr %7, align 8
  %.not.i.i.i = icmp eq ptr %15, null
  br i1 %.not.i.i.i, label %_ZNSt6vectorIxSaIxEED2Ev.exit, label %16

16:                                               ; preds = %14
  call void @_ZdlPv(ptr noundef nonnull %15) #30
  br label %_ZNSt6vectorIxSaIxEED2Ev.exit

_ZNSt6vectorIxSaIxEED2Ev.exit:                    ; preds = %14, %16
  %17 = load ptr, ptr %6, align 8
  %.not.i.i.i5 = icmp eq ptr %17, null
  br i1 %.not.i.i.i5, label %_ZNSt6vectorIxSaIxEED2Ev.exit6, label %18

18:                                               ; preds = %_ZNSt6vectorIxSaIxEED2Ev.exit
  call void @_ZdlPv(ptr noundef nonnull %17) #30
  br label %_ZNSt6vectorIxSaIxEED2Ev.exit6

_ZNSt6vectorIxSaIxEED2Ev.exit6:                   ; preds = %_ZNSt6vectorIxSaIxEED2Ev.exit, %18
  ret void

19:                                               ; preds = %8, %5
  %20 = landingpad { ptr, i32 }
          cleanup
  %21 = load ptr, ptr %7, align 8
  %.not.i.i.i7 = icmp eq ptr %21, null
  br i1 %.not.i.i.i7, label %_ZNSt6vectorIxSaIxEED2Ev.exit8, label %22

22:                                               ; preds = %19
  call void @_ZdlPv(ptr noundef nonnull %21) #30
  br label %_ZNSt6vectorIxSaIxEED2Ev.exit8

_ZNSt6vectorIxSaIxEED2Ev.exit8:                   ; preds = %19, %22
  %23 = load ptr, ptr %6, align 8
  %.not.i.i.i9 = icmp eq ptr %23, null
  br i1 %.not.i.i.i9, label %_ZNSt6vectorIxSaIxEED2Ev.exit10, label %24

24:                                               ; preds = %_ZNSt6vectorIxSaIxEED2Ev.exit8
  call void @_ZdlPv(ptr noundef nonnull %23) #30
  br label %_ZNSt6vectorIxSaIxEED2Ev.exit10

_ZNSt6vectorIxSaIxEED2Ev.exit10:                  ; preds = %_ZNSt6vectorIxSaIxEED2Ev.exit8, %24
  resume { ptr, i32 } %20
}